target datalayout = "e-m:e-p270:32:32-p271:32:32-p272:64:64-i64:64-i128:128-f80:128-n8:16:32:64-S128"
target triple = "x86_64-pc-linux-gnu"

%struct.slurmdb_assoc_rec = type { ptr, ptr, ptr, ptr, ptr, ptr, ptr, i32, i32, i32, i32, i32, ptr, ptr, ptr, ptr, ptr, ptr, i32, i32, i16, ptr, ptr, i32, i32, i32, ptr, ptr, ptr, ptr, ptr, ptr, ptr, ptr, i32, i32, ptr, i32, ptr, i32, ptr, i32, i32, ptr, ptr, ptr }
%struct.slurmdb_hierarchical_rec_t = type { ptr, ptr, ptr, ptr }

@.str.228 = private unnamed_addr constant [6 x i8] c"%u,%s\00", align 1

; Function Attrs: nounwind uwtable
define internal ptr @_create_hash_rec_id(ptr noundef %0, i1 noundef zeroext %1) #0 {
  %3 = alloca ptr, align 8
  %4 = alloca i8, align 1
  store ptr %0, ptr %3, align 8
  %5 = zext i1 %1 to i8
  store i8 %5, ptr %4, align 1
  %6 = load i8, ptr %4, align 1, !range !12, !noundef !13
  %7 = trunc i8 %6 to i1
  br i1 %7, label %8, label %12

8:                                                ; preds = %2
  %9 = load ptr, ptr %3, align 8
  %10 = getelementptr inbounds nuw %struct.slurmdb_assoc_rec, ptr %9, i32 0, i32 37
  %11 = load i32, ptr %10, align 8
  br label %16

12:                                               ; preds = %2
  %13 = load ptr, ptr %3, align 8
  %14 = getelementptr inbounds nuw %struct.slurmdb_assoc_rec, ptr %13, i32 0, i32 19
  %15 = load i32, ptr %14, align 4
  br label %16

16:                                               ; preds = %12, %8
  %17 = phi i32 [ %11, %8 ], [ %15, %12 ]
  %18 = load ptr, ptr %3, align 8
  %19 = getelementptr inbounds nuw %struct.slurmdb_assoc_rec, ptr %18, i32 0, i32 5
  %20 = load ptr, ptr %19, align 8
  %21 = call ptr (ptr, ...) @xstrdup_printf(ptr noundef @.str.228, i32 noundef %17, ptr noundef %20)
  ret ptr %21
}

; Function Attrs: nounwind uwtable
define internal void @_arch_hash_rec_id(ptr noundef %0, ptr noundef %1, ptr noundef %2) #0 {
  %4 = alloca ptr, align 8
  %5 = alloca ptr, align 8
  %6 = alloca ptr, align 8
  %7 = alloca ptr, align 8
  store ptr %0, ptr %4, align 8
  store ptr %1, ptr %5, align 8
  store ptr %2, ptr %6, align 8
  call void @llvm.lifetime.start.p0(i64 8, ptr %7) #10
  %8 = load ptr, ptr %4, align 8
  store ptr %8, ptr %7, align 8
  %9 = load ptr, ptr %7, align 8
  %10 = getelementptr inbounds nuw %struct.slurmdb_hierarchical_rec_t, ptr %9, i32 0, i32 1
  call void @slurm_xfree(ptr noundef %10)
  %11 = load ptr, ptr %7, align 8
  %12 = getelementptr inbounds nuw %struct.slurmdb_hierarchical_rec_t, ptr %11, i32 0, i32 0
  %13 = load ptr, ptr %12, align 8
  %14 = call ptr @_create_hash_rec_id(ptr noundef %13, i1 noundef zeroext false)
  %15 = load ptr, ptr %7, align 8
  %16 = getelementptr inbounds nuw %struct.slurmdb_hierarchical_rec_t, ptr %15, i32 0, i32 1
  store ptr %14, ptr %16, align 8
  %17 = load ptr, ptr %7, align 8
  %18 = getelementptr inbounds nuw %struct.slurmdb_hierarchical_rec_t, ptr %17, i32 0, i32 1
  %19 = load ptr, ptr %18, align 8
  %20 = load ptr, ptr %5, align 8
  store ptr %19, ptr %20, align 8
  %21 = load ptr, ptr %5, align 8
  %22 = load ptr, ptr %21, align 8
  %23 = call i64 @strlen(ptr noundef %22) #11
  %24 = trunc i64 %23 to i32
  %25 = load ptr, ptr %6, align 8
  store i32 %24, ptr %25, align 4
  call void @llvm.lifetime.end.p0(i64 8, ptr %7) #10
  ret void
}