; Function Attrs: nounwind uwtable
define internal void @_arch_hash_rec_id(ptr noundef %0, ptr noundef writeonly captures(none) initializes((0, 8)) %1, ptr noundef writeonly captures(none) initializes((0, 4)) %2) #0 {
  %4 = getelementptr inbounds nuw i8, ptr %0, i64 8
  tail call void @slurm_xfree(ptr noundef nonnull %4) #19
  %5 = load ptr, ptr %0, align 8
  %.in.i = getelementptr inbounds nuw i8, ptr %5, i64 132
  %6 = load i32, ptr %.in.i, align 4
  %7 = getelementptr inbounds nuw i8, ptr %5, i64 40
  %8 = load ptr, ptr %7, align 8
  %9 = tail call ptr (ptr, ...) @xstrdup_printf(ptr noundef nonnull @.str.228, i32 noundef %6, ptr noundef %8) #19
  store ptr %9, ptr %4, align 8
  store ptr %9, ptr %1, align 8
  %10 = tail call i64 @strlen(ptr noundef nonnull dereferenceable(1) %9) #20
  %11 = trunc i64 %10 to i32
  store i32 %11, ptr %2, align 4
  ret void
}